target datalayout = "e-m:e-p270:32:32-p271:32:32-p272:64:64-i64:64-i128:128-f80:128-n8:16:32:64-S128"
target triple = "x86_64-pc-linux-gnu"

%struct.Curl_handler = type { ptr, ptr, ptr, ptr, ptr, ptr, ptr, ptr, ptr, ptr, ptr, ptr, ptr, ptr, ptr, ptr, ptr, ptr, i32, i32, i32, i32 }
%struct.Curl_easy = type { i32, i64, i64, ptr, %struct.Curl_llist_node, %struct.Curl_llist_node, i32, i32, %struct.Curl_message, %struct.easy_pollset, %struct.Names, ptr, ptr, ptr, ptr, %struct.SingleRequest, %struct.UserDefined, ptr, ptr, ptr, %struct.Progress, %struct.UrlState, ptr, %struct.PureInfo, %struct.curl_tlssessioninfo }
%struct.Curl_llist_node = type { ptr, ptr, ptr, ptr }
%struct.Curl_message = type { %struct.Curl_llist_node, %struct.CURLMsg }
%struct.CURLMsg = type { i32, ptr, %union.anon }
%union.anon = type { ptr }
%struct.easy_pollset = type { [5 x i32], i32, [5 x i8] }
%struct.Names = type { ptr, i32 }
%struct.SingleRequest = type <{ i64, i64, i64, i64, %struct.curltime, i32, i32, i32, i32, i64, i32, i32, i8, i8, [2 x i8], i32, ptr, ptr, %struct.bufq, i64, i64, ptr, ptr, %union.anon.0, ptr, i8, i32, [3 x i8] }>
%struct.curltime = type { i64, i32 }
%struct.bufq = type { ptr, ptr, ptr, ptr, i64, i64, i64, i32 }
%union.anon.0 = type { ptr }
%struct.UserDefined = type <{ ptr, ptr, ptr, ptr, ptr, ptr, i64, i64, i64, ptr, ptr, i64, ptr, ptr, ptr, ptr, ptr, ptr, ptr, ptr, ptr, ptr, ptr, ptr, ptr, ptr, ptr, ptr, ptr, ptr, ptr, ptr, ptr, ptr, ptr, i64, i64, i64, i64, i64, i64, i64, i64, i64, ptr, ptr, %struct.curl_mimepart, ptr, ptr, ptr, i64, %struct.ssl_config_data, %struct.ssl_config_data, ptr, i16, i8, i8, %struct.ssl_general_config, i32, i32, i32, [4 x i8], ptr, ptr, i64, i32, i8, i8, i8, i8, ptr, ptr, ptr, i32, [4 x i8], [74 x ptr], [8 x ptr], i32, i32, i32, [4 x i8], ptr, i32, [4 x i8], ptr, ptr, ptr, ptr, ptr, i32, i32, i32, i32, i32, i32, i32, i32, i64, ptr, ptr, i64, ptr, i64, ptr, ptr, ptr, ptr, i32, i16, i16, i16, i8, i8, i8, i8, i8, i8, i8, i8, i64, [6 x i8] }>
%struct.curl_mimepart = type { ptr, ptr, i32, i32, ptr, ptr, ptr, ptr, ptr, ptr, ptr, ptr, ptr, ptr, ptr, i64, %struct.mime_state, ptr, %struct.mime_encoder_state, i64 }
%struct.mime_state = type { i32, ptr, i64 }
%struct.mime_encoder_state = type { i64, i64, i64, [256 x i8] }
%struct.ssl_config_data = type { %struct.ssl_primary_config, i64, ptr, ptr, ptr, ptr, ptr, ptr, ptr, i16 }
%struct.ssl_primary_config = type { ptr, ptr, ptr, ptr, ptr, ptr, ptr, ptr, ptr, ptr, ptr, ptr, ptr, ptr, i8, i32, i8, i8 }
%struct.ssl_general_config = type { i32 }
%struct.Progress = type { i64, %struct.pgrs_dir, %struct.pgrs_dir, i64, i64, i32, i32, i64, i64, i64, i64, i64, i64, i64, i64, i64, %struct.curltime, %struct.curltime, %struct.curltime, %struct.curltime, %struct.curltime, [6 x i64], [6 x %struct.curltime], i32, i8 }
%struct.pgrs_dir = type { i64, i64, i64, %struct.pgrs_measure }
%struct.pgrs_measure = type { %struct.curltime, i64 }
%struct.UrlState = type { %struct.curltime, i64, i64, %struct.dynbuf, ptr, i64, ptr, i32, i32, i32, ptr, i32, i64, i32, ptr, %struct.digestdata, %struct.digestdata, %struct.auth, %struct.auth, %struct.Curl_async, ptr, i8, %struct.curltime, %struct.Curl_tree, %struct.Curl_llist, [15 x %struct.time_node], ptr, ptr, i64, i64, i64, i64, [32 x i8], i64, ptr, ptr, ptr, %struct.urlpieces, ptr, ptr, ptr, ptr, ptr, i64, %struct.dynbuf, %struct.Curl_llist, [2 x %struct.curl_header], ptr, i32, ptr, ptr, %struct.store_netrc, %struct.dynamically_allocated_data, i8, i8, i8, i8, i32 }
%struct.digestdata = type { ptr, ptr, ptr, ptr, ptr, ptr, i32, i8, i8 }
%struct.auth = type { i64, i64, i64, i8 }
%struct.Curl_async = type { ptr, ptr, ptr, ptr, i32, i32, i8 }
%struct.Curl_tree = type { ptr, ptr, ptr, ptr, %struct.curltime, ptr }
%struct.time_node = type { %struct.Curl_llist_node, %struct.curltime, i32 }
%struct.urlpieces = type { ptr, ptr, ptr, ptr, ptr, ptr, ptr, ptr }
%struct.dynbuf = type { ptr, i64, i64, i64 }
%struct.Curl_llist = type { ptr, ptr, ptr, i64 }
%struct.curl_header = type { ptr, ptr, i64, i64, i32, ptr }
%struct.store_netrc = type { %struct.dynbuf, ptr, i8 }
%struct.dynamically_allocated_data = type { ptr, ptr, ptr, ptr, ptr, ptr, ptr, ptr, ptr, ptr, ptr, ptr, ptr, ptr }
%struct.PureInfo = type { i32, i32, i32, i64, i64, i64, i64, i64, i64, i64, ptr, ptr, i64, i32, %struct.ip_quadruple, i32, ptr, i32, %struct.curl_certinfo, i32, i8 }
%struct.ip_quadruple = type { [46 x i8], [46 x i8], i32, i32 }
%struct.curl_certinfo = type { i32, ptr }
%struct.curl_tlssessioninfo = type { i32, ptr }
%struct.connectdata = type { %struct.Curl_llist_node, ptr, ptr, i64, ptr, i64, ptr, ptr, %struct.hostname, ptr, ptr, %struct.hostname, %struct.proxy_info, %struct.proxy_info, %struct.ip_quadruple, %struct.ip_quadruple, ptr, ptr, ptr, ptr, ptr, %struct.curltime, %struct.curltime, %struct.curltime, [2 x i32], [2 x ptr], [2 x ptr], [2 x ptr], %struct.anon, %struct.easy_pollset, %struct.ssl_primary_config, %struct.ssl_primary_config, %struct.ConnectBits, ptr, ptr, %struct.curltime, i32, i32, %struct.Curl_llist, i32, i32, %struct.ntlmdata, %struct.ntlmdata, %union.anon.1, ptr, ptr, i16, i32, i32, i32, i32, i16, i16, i8, i8, i8, i8, i8, i8, i8 }
%struct.hostname = type { ptr, ptr, ptr, ptr }
%struct.proxy_info = type { %struct.hostname, i32, i8, ptr, ptr }
%struct.anon = type { [2 x %struct.curltime], i32 }
%struct.ConnectBits = type { i64 }
%struct.ntlmdata = type { i32, [8 x i8], i32, ptr }
%union.anon.1 = type { %struct.ftp_conn }
%struct.ftp_conn = type { %struct.pingpong, ptr, ptr, ptr, ptr, ptr, ptr, ptr, i8, i64, ptr, i64, i32, i32, i32, i32, i32, i16, i8, i8, i8, i8, i8 }
%struct.pingpong = type { i64, i8, ptr, i64, i64, %struct.curltime, i64, %struct.dynbuf, %struct.dynbuf, i64, i64, ptr, ptr }

@.str.23 = private unnamed_addr constant [1 x i8] zeroinitializer, align 1
@.str.28 = private unnamed_addr constant [19 x i8] c"Protocol \22%s\22 %s%s\00", align 1
@.str.29 = private unnamed_addr constant [9 x i8] c"disabled\00", align 1
@.str.30 = private unnamed_addr constant [14 x i8] c"not supported\00", align 1
@.str.31 = private unnamed_addr constant [15 x i8] c" (in redirect)\00", align 1

; Function Attrs: nounwind uwtable
define hidden ptr @Curl_getn_scheme_handler(ptr noundef %0, i64 noundef %1) #0 {
  %3 = alloca ptr, align 8
  %4 = alloca ptr, align 8
  %5 = alloca i64, align 8
  %6 = alloca ptr, align 8
  %7 = alloca i64, align 8
  %8 = alloca ptr, align 8
  %9 = alloca i32, align 4
  %10 = alloca i32, align 4
  store ptr %0, ptr %4, align 8, !tbaa !11
  store i64 %1, ptr %5, align 8, !tbaa !182
  %11 = load i64, ptr %5, align 8, !tbaa !182
  %12 = icmp ne i64 %11, 0
  br i1 %12, label %13, label %65

13:                                               ; preds = %2
  %14 = load i64, ptr %5, align 8, !tbaa !182
  %15 = icmp ule i64 %14, 7
  br i1 %15, label %16, label %65

16:                                               ; preds = %13
  call void @llvm.lifetime.start.p0(i64 8, ptr %6) #8
  %17 = load ptr, ptr %4, align 8, !tbaa !11
  store ptr %17, ptr %6, align 8, !tbaa !11
  call void @llvm.lifetime.start.p0(i64 8, ptr %7) #8
  %18 = load i64, ptr %5, align 8, !tbaa !182
  store i64 %18, ptr %7, align 8, !tbaa !182
  call void @llvm.lifetime.start.p0(i64 8, ptr %8) #8
  call void @llvm.lifetime.start.p0(i64 4, ptr %9) #8
  store i32 978, ptr %9, align 4, !tbaa !8
  br label %19

19:                                               ; preds = %22, %16
  %20 = load i64, ptr %7, align 8, !tbaa !182
  %21 = icmp ne i64 %20, 0
  br i1 %21, label %22, label %35

22:                                               ; preds = %19
  %23 = load i32, ptr %9, align 4, !tbaa !8
  %24 = shl i32 %23, 5
  store i32 %24, ptr %9, align 4, !tbaa !8
  %25 = load ptr, ptr %6, align 8, !tbaa !11
  %26 = load i8, ptr %25, align 1, !tbaa !236
  %27 = call signext i8 @Curl_raw_tolower(i8 noundef signext %26)
  %28 = sext i8 %27 to i32
  %29 = load i32, ptr %9, align 4, !tbaa !8
  %30 = add i32 %29, %28
  store i32 %30, ptr %9, align 4, !tbaa !8
  %31 = load ptr, ptr %6, align 8, !tbaa !11
  %32 = getelementptr inbounds nuw i8, ptr %31, i32 1
  store ptr %32, ptr %6, align 8, !tbaa !11
  %33 = load i64, ptr %7, align 8, !tbaa !182
  %34 = add i64 %33, -1
  store i64 %34, ptr %7, align 8, !tbaa !182
  br label %19, !llvm.loop !237

35:                                               ; preds = %19
  %36 = load i32, ptr %9, align 4, !tbaa !8
  %37 = urem i32 %36, 67
  %38 = zext i32 %37 to i64
  %39 = getelementptr inbounds nuw [67 x ptr], ptr @Curl_getn_scheme_handler.protocols, i64 0, i64 %38
  %40 = load ptr, ptr %39, align 8, !tbaa !238
  store ptr %40, ptr %8, align 8, !tbaa !238
  %41 = load ptr, ptr %8, align 8, !tbaa !238
  %42 = icmp ne ptr %41, null
  br i1 %42, label %43, label %61

43:                                               ; preds = %35
  %44 = load ptr, ptr %4, align 8, !tbaa !11
  %45 = load ptr, ptr %8, align 8, !tbaa !238
  %46 = getelementptr inbounds nuw %struct.Curl_handler, ptr %45, i32 0, i32 0
  %47 = load ptr, ptr %46, align 8, !tbaa !239
  %48 = load i64, ptr %5, align 8, !tbaa !182
  %49 = call i32 @curl_strnequal(ptr noundef %44, ptr noundef %47, i64 noundef %48)
  %50 = icmp ne i32 %49, 0
  br i1 %50, label %51, label %61

51:                                               ; preds = %43
  %52 = load ptr, ptr %8, align 8, !tbaa !238
  %53 = getelementptr inbounds nuw %struct.Curl_handler, ptr %52, i32 0, i32 0
  %54 = load ptr, ptr %53, align 8, !tbaa !239
  %55 = load i64, ptr %5, align 8, !tbaa !182
  %56 = getelementptr inbounds nuw i8, ptr %54, i64 %55
  %57 = load i8, ptr %56, align 1, !tbaa !236
  %58 = icmp ne i8 %57, 0
  br i1 %58, label %61, label %59

59:                                               ; preds = %51
  %60 = load ptr, ptr %8, align 8, !tbaa !238
  store ptr %60, ptr %3, align 8
  store i32 1, ptr %10, align 4
  br label %62

61:                                               ; preds = %51, %43, %35
  store i32 0, ptr %10, align 4
  br label %62

62:                                               ; preds = %61, %59
  call void @llvm.lifetime.end.p0(i64 4, ptr %9) #8
  call void @llvm.lifetime.end.p0(i64 8, ptr %8) #8
  call void @llvm.lifetime.end.p0(i64 8, ptr %7) #8
  call void @llvm.lifetime.end.p0(i64 8, ptr %6) #8
  %63 = load i32, ptr %10, align 4
  switch i32 %63, label %68 [
    i32 0, label %64
    i32 1, label %66
  ]

64:                                               ; preds = %62
  br label %65

65:                                               ; preds = %64, %13, %2
  store ptr null, ptr %3, align 8
  br label %66

66:                                               ; preds = %65, %62
  %67 = load ptr, ptr %3, align 8
  ret ptr %67

68:                                               ; preds = %62
  unreachable
}

; Function Attrs: nounwind uwtable
define hidden ptr @Curl_get_scheme_handler(ptr noundef %0) #0 {
  %2 = alloca ptr, align 8
  store ptr %0, ptr %2, align 8, !tbaa !11
  %3 = load ptr, ptr %2, align 8, !tbaa !11
  %4 = load ptr, ptr %2, align 8, !tbaa !11
  %5 = call i64 @strlen(ptr noundef %4) #9
  %6 = call ptr @Curl_getn_scheme_handler(ptr noundef %3, i64 noundef %5)
  ret ptr %6
}

; Function Attrs: nounwind uwtable
define internal i32 @findprotocol(ptr noundef %0, ptr noundef %1, ptr noundef %2) #0 {
  %4 = alloca i32, align 4
  %5 = alloca ptr, align 8
  %6 = alloca ptr, align 8
  %7 = alloca ptr, align 8
  %8 = alloca ptr, align 8
  %9 = alloca i32, align 4
  store ptr %0, ptr %5, align 8, !tbaa !3
  store ptr %1, ptr %6, align 8, !tbaa !181
  store ptr %2, ptr %7, align 8, !tbaa !11
  call void @llvm.lifetime.start.p0(i64 8, ptr %8) #8
  %10 = load ptr, ptr %7, align 8, !tbaa !11
  %11 = call ptr @Curl_get_scheme_handler(ptr noundef %10)
  store ptr %11, ptr %8, align 8, !tbaa !238
  %12 = load ptr, ptr %8, align 8, !tbaa !238
  %13 = icmp ne ptr %12, null
  br i1 %13, label %14, label %50

14:                                               ; preds = %3
  %15 = load ptr, ptr %5, align 8, !tbaa !3
  %16 = getelementptr inbounds nuw %struct.Curl_easy, ptr %15, i32 0, i32 16
  %17 = getelementptr inbounds nuw %struct.UserDefined, ptr %16, i32 0, i32 78
  %18 = load i32, ptr %17, align 4, !tbaa !328
  %19 = load ptr, ptr %8, align 8, !tbaa !238
  %20 = getelementptr inbounds nuw %struct.Curl_handler, ptr %19, i32 0, i32 19
  %21 = load i32, ptr %20, align 4, !tbaa !234
  %22 = and i32 %18, %21
  %23 = icmp ne i32 %22, 0
  br i1 %23, label %24, label %50

24:                                               ; preds = %14
  %25 = load ptr, ptr %5, align 8, !tbaa !3
  %26 = getelementptr inbounds nuw %struct.Curl_easy, ptr %25, i32 0, i32 21
  %27 = getelementptr inbounds nuw %struct.UrlState, ptr %26, i32 0, i32 57
  %28 = load i32, ptr %27, align 4
  %29 = lshr i32 %28, 3
  %30 = and i32 %29, 1
  %31 = icmp ne i32 %30, 0
  br i1 %31, label %32, label %43

32:                                               ; preds = %24
  %33 = load ptr, ptr %5, align 8, !tbaa !3
  %34 = getelementptr inbounds nuw %struct.Curl_easy, ptr %33, i32 0, i32 16
  %35 = getelementptr inbounds nuw %struct.UserDefined, ptr %34, i32 0, i32 79
  %36 = load i32, ptr %35, align 8, !tbaa !329
  %37 = load ptr, ptr %8, align 8, !tbaa !238
  %38 = getelementptr inbounds nuw %struct.Curl_handler, ptr %37, i32 0, i32 19
  %39 = load i32, ptr %38, align 4, !tbaa !234
  %40 = and i32 %36, %39
  %41 = icmp ne i32 %40, 0
  br i1 %41, label %43, label %42

42:                                               ; preds = %32
  br label %49

43:                                               ; preds = %32, %24
  %44 = load ptr, ptr %8, align 8, !tbaa !238
  %45 = load ptr, ptr %6, align 8, !tbaa !181
  %46 = getelementptr inbounds nuw %struct.connectdata, ptr %45, i32 0, i32 34
  store ptr %44, ptr %46, align 8, !tbaa !248
  %47 = load ptr, ptr %6, align 8, !tbaa !181
  %48 = getelementptr inbounds nuw %struct.connectdata, ptr %47, i32 0, i32 33
  store ptr %44, ptr %48, align 8, !tbaa !218
  store i32 0, ptr %4, align 4
  store i32 1, ptr %9, align 4
  br label %64

49:                                               ; preds = %42
  br label %50

50:                                               ; preds = %49, %14, %3
  %51 = load ptr, ptr %5, align 8, !tbaa !3
  %52 = load ptr, ptr %7, align 8, !tbaa !11
  %53 = load ptr, ptr %8, align 8, !tbaa !238
  %54 = icmp ne ptr %53, null
  %55 = select i1 %54, ptr @.str.29, ptr @.str.30
  %56 = load ptr, ptr %5, align 8, !tbaa !3
  %57 = getelementptr inbounds nuw %struct.Curl_easy, ptr %56, i32 0, i32 21
  %58 = getelementptr inbounds nuw %struct.UrlState, ptr %57, i32 0, i32 57
  %59 = load i32, ptr %58, align 4
  %60 = lshr i32 %59, 3
  %61 = and i32 %60, 1
  %62 = icmp ne i32 %61, 0
  %63 = select i1 %62, ptr @.str.31, ptr @.str.23
  call void (ptr, ptr, ...) @Curl_failf(ptr noundef %51, ptr noundef @.str.28, ptr noundef %52, ptr noundef %55, ptr noundef %63)
  store i32 1, ptr %4, align 4
  store i32 1, ptr %9, align 4
  br label %64

64:                                               ; preds = %50, %43
  call void @llvm.lifetime.end.p0(i64 8, ptr %8) #8
  %65 = load i32, ptr %4, align 4
  ret i32 %65
}