; Function Attrs: nounwind uwtable
define internal fastcc range(i32 0, 2) i32 @findprotocol(ptr noundef %0, ptr noundef nonnull writeonly captures(none) %1, ptr noundef %2) unnamed_addr #0 {
  %4 = tail call i64 @strlen(ptr noundef nonnull dereferenceable(1) %2) #12
  %5 = add i64 %4, -1
  %or.cond.i.i = icmp ult i64 %5, 7
  br i1 %or.cond.i.i, label %.lr.ph.i.i, label %Curl_get_scheme_handler.exit.thread

.lr.ph.i.i:                                       ; preds = %3, %.lr.ph.i.i
  %.02034.i.i = phi i32 [ %10, %.lr.ph.i.i ], [ 978, %3 ]
  %.02233.i.i = phi i64 [ %12, %.lr.ph.i.i ], [ %4, %3 ]
  %.02332.i.i = phi ptr [ %11, %.lr.ph.i.i ], [ %2, %3 ]
  %6 = shl i32 %.02034.i.i, 5
  %7 = load i8, ptr %.02332.i.i, align 1, !tbaa !215
  %8 = tail call signext i8 @Curl_raw_tolower(i8 noundef signext %7) #11
  %9 = sext i8 %8 to i32
  %10 = add i32 %6, %9
  %11 = getelementptr inbounds nuw i8, ptr %.02332.i.i, i64 1
  %12 = add nsw i64 %.02233.i.i, -1
  %.not.i.i = icmp eq i64 %12, 0
  br i1 %.not.i.i, label %._crit_edge.i.i, label %.lr.ph.i.i, !llvm.loop !216

._crit_edge.i.i:                                  ; preds = %.lr.ph.i.i
  %13 = urem i32 %10, 67
  %14 = zext nneg i32 %13 to i64
  %15 = getelementptr inbounds nuw [67 x ptr], ptr @Curl_getn_scheme_handler.protocols, i64 0, i64 %14
  %16 = load ptr, ptr %15, align 8, !tbaa !217
  %.not26.i.i = icmp eq ptr %16, null
  br i1 %.not26.i.i, label %Curl_get_scheme_handler.exit.thread, label %17

17:                                               ; preds = %._crit_edge.i.i
  %18 = load ptr, ptr %16, align 8, !tbaa !218
  %19 = tail call i32 @curl_strnequal(ptr noundef nonnull %2, ptr noundef %18, i64 noundef %4) #11
  %.not27.i.i = icmp eq i32 %19, 0
  br i1 %.not27.i.i, label %Curl_get_scheme_handler.exit.thread, label %20

20:                                               ; preds = %17
  %21 = load ptr, ptr %16, align 8, !tbaa !218
  %22 = getelementptr inbounds nuw i8, ptr %21, i64 %4
  %23 = load i8, ptr %22, align 1, !tbaa !215
  %.not28.i.i = icmp eq i8 %23, 0
  br i1 %.not28.i.i, label %Curl_get_scheme_handler.exit, label %Curl_get_scheme_handler.exit.thread

Curl_get_scheme_handler.exit:                     ; preds = %20
  %24 = getelementptr inbounds nuw i8, ptr %0, i64 2460
  %25 = load i32, ptr %24, align 4, !tbaa !301
  %26 = getelementptr inbounds nuw i8, ptr %16, i64 148
  %27 = load i32, ptr %26, align 4, !tbaa !213
  %28 = and i32 %27, %25
  %.not15 = icmp eq i32 %28, 0
  br i1 %.not15, label %Curl_get_scheme_handler.exit.thread, label %29

29:                                               ; preds = %Curl_get_scheme_handler.exit
  %30 = getelementptr inbounds nuw i8, ptr %0, i64 5036
  %31 = load i32, ptr %30, align 4
  %32 = and i32 %31, 8
  %.not16 = icmp eq i32 %32, 0
  br i1 %.not16, label %37, label %33

33:                                               ; preds = %29
  %34 = getelementptr inbounds nuw i8, ptr %0, i64 2464
  %35 = load i32, ptr %34, align 8, !tbaa !302
  %36 = and i32 %35, %27
  %.not17 = icmp eq i32 %36, 0
  br i1 %.not17, label %Curl_get_scheme_handler.exit.thread, label %37

37:                                               ; preds = %33, %29
  %38 = getelementptr inbounds nuw i8, ptr %1, i64 968
  store ptr %16, ptr %38, align 8, !tbaa !250
  %39 = getelementptr inbounds nuw i8, ptr %1, i64 960
  store ptr %16, ptr %39, align 8, !tbaa !200
  br label %45

Curl_get_scheme_handler.exit.thread:              ; preds = %._crit_edge.i.i, %17, %20, %3, %33, %Curl_get_scheme_handler.exit
  %40 = phi ptr [ @.str.29, %33 ], [ @.str.29, %Curl_get_scheme_handler.exit ], [ @.str.30, %3 ], [ @.str.30, %20 ], [ @.str.30, %17 ], [ @.str.30, %._crit_edge.i.i ]
  %41 = getelementptr inbounds nuw i8, ptr %0, i64 5036
  %42 = load i32, ptr %41, align 4
  %43 = and i32 %42, 8
  %.not18 = icmp eq i32 %43, 0
  %44 = select i1 %.not18, ptr @.str.23, ptr @.str.31
  tail call void (ptr, ptr, ...) @Curl_failf(ptr noundef %0, ptr noundef nonnull @.str.28, ptr noundef nonnull %2, ptr noundef nonnull %40, ptr noundef nonnull %44) #11
  br label %45

45:                                               ; preds = %Curl_get_scheme_handler.exit.thread, %37
  %.0 = phi i32 [ 0, %37 ], [ 1, %Curl_get_scheme_handler.exit.thread ]
  ret i32 %.0
}